; Function Attrs: mustprogress nounwind uwtable
define void @_ZN6google8protobuf4util18MessageDifferencer14StreamReporterD2Ev(ptr nocapture noundef nonnull align 8 dereferenceable(48) %this) unnamed_addr #7 align 2 personality ptr @__gxx_personality_v0 {
entry:
  store ptr getelementptr inbounds ({ [14 x ptr] }, ptr @_ZTVN6google8protobuf4util18MessageDifferencer14StreamReporterE, i64 0, i32 0, i64 2), ptr %this, align 8
  %delete_printer_ = getelementptr inbounds i8, ptr %this, i64 16
  %0 = load i8, ptr %delete_printer_, align 8
  %1 = and i8 %0, 1
  %tobool.not = icmp eq i8 %1, 0
  br i1 %tobool.not, label %if.end, label %if.then

if.then:                                          ; preds = %entry
  %printer_ = getelementptr inbounds i8, ptr %this, i64 8
  %2 = load ptr, ptr %printer_, align 8
  %isnull = icmp eq ptr %2, null
  br i1 %isnull, label %if.end, label %delete.notnull

delete.notnull:                                   ; preds = %if.then
  tail call void @_ZN6google8protobuf2io7PrinterD2Ev(ptr noundef nonnull align 8 dereferenceable(256) %2) #34
  tail call void @_ZdlPv(ptr noundef nonnull %2) #33
  br label %if.end

if.end:                                           ; preds = %if.then, %delete.notnull, %entry
  %unpack_any_field_ = getelementptr inbounds i8, ptr %this, i64 40
  %3 = load ptr, ptr %unpack_any_field_, align 8
  %cmp.not.i.i = icmp eq ptr %3, null
  br i1 %cmp.not.i.i, label %_ZN6google8protobuf4util18MessageDifferencer14UnpackAnyFieldD2Ev.exit, label %_ZNKSt14default_deleteIN6google8protobuf21DynamicMessageFactoryEEclEPS2_.exit.i.i

_ZNKSt14default_deleteIN6google8protobuf21DynamicMessageFactoryEEclEPS2_.exit.i.i: ; preds = %if.end
  %vtable.i.i.i = load ptr, ptr %3, align 8
  %vfn.i.i.i = getelementptr inbounds i8, ptr %vtable.i.i.i, i64 8
  %4 = load ptr, ptr %vfn.i.i.i, align 8
  tail call void %4(ptr noundef nonnull align 8 dereferenceable(64) %3) #34
  br label %_ZN6google8protobuf4util18MessageDifferencer14UnpackAnyFieldD2Ev.exit

_ZN6google8protobuf4util18MessageDifferencer14UnpackAnyFieldD2Ev.exit: ; preds = %if.end, %_ZNKSt14default_deleteIN6google8protobuf21DynamicMessageFactoryEEclEPS2_.exit.i.i
  store ptr null, ptr %unpack_any_field_, align 8
  ret void
}